; ModuleID = '24/165.c'
source_filename = "24/165.c"
target datalayout = "e-m:e-p270:32:32-p271:32:32-p272:64:64-i64:64-f80:128-n8:16:32:64-S128"
target triple = "x86_64-pc-linux-gnu"

@__const.main.min = private unnamed_addr constant [20 x i8] c"aaaaaaaaaaaaaaa\00\00\00\00\00", align 16
@.str = private unnamed_addr constant [3 x i8] c"%s\00", align 1

; Function Attrs: noinline nounwind uwtable
define dso_local void @main() #0 {
  %1 = alloca [300 x i8], align 16
  %2 = alloca [20 x i8], align 16
  %3 = alloca [20 x i8], align 16
  %4 = alloca i32, align 4
  %5 = alloca i32, align 4
  %6 = alloca i32, align 4
  %7 = bitcast [20 x i8]* %2 to i8*
  call void @llvm.memset.p0i8.i64(i8* align 16 %7, i8 0, i64 20, i1 false)
  %8 = bitcast [20 x i8]* %3 to i8*
  call void @llvm.memcpy.p0i8.p0i8.i64(i8* align 16 %8, i8* align 16 getelementptr inbounds ([20 x i8], [20 x i8]* @__const.main.min, i32 0, i32 0), i64 20, i1 false)
  br label %9

9:                                                ; preds = %37, %0
  %10 = getelementptr inbounds [300 x i8], [300 x i8]* %1, i64 0, i64 0
  %11 = call i32 (i8*, ...) @__isoc99_scanf(i8* getelementptr inbounds ([3 x i8], [3 x i8]* @.str, i64 0, i64 0), i8* %10)
  %12 = getelementptr inbounds [300 x i8], [300 x i8]* %1, i64 0, i64 0
  %13 = call i64 @strlen(i8* %12) #5
  %14 = trunc i64 %13 to i32
  store i32 %14, i32* %4, align 4
  %15 = getelementptr inbounds [20 x i8], [20 x i8]* %2, i64 0, i64 0
  %16 = call i64 @strlen(i8* %15) #5
  %17 = trunc i64 %16 to i32
  store i32 %17, i32* %5, align 4
  %18 = getelementptr inbounds [20 x i8], [20 x i8]* %3, i64 0, i64 0
  %19 = call i64 @strlen(i8* %18) #5
  %20 = trunc i64 %19 to i32
  store i32 %20, i32* %6, align 4
  %21 = load i32, i32* %4, align 4
  %22 = load i32, i32* %5, align 4
  %23 = icmp sgt i32 %21, %22
  br i1 %23, label %24, label %28

24:                                               ; preds = %9
  %25 = getelementptr inbounds [20 x i8], [20 x i8]* %2, i64 0, i64 0
  %26 = getelementptr inbounds [300 x i8], [300 x i8]* %1, i64 0, i64 0
  %27 = call i8* @strcpy(i8* %25, i8* %26) #6
  br label %28

28:                                               ; preds = %24, %9
  %29 = load i32, i32* %4, align 4
  %30 = load i32, i32* %6, align 4
  %31 = icmp slt i32 %29, %30
  br i1 %31, label %32, label %36

32:                                               ; preds = %28
  %33 = getelementptr inbounds [20 x i8], [20 x i8]* %3, i64 0, i64 0
  %34 = getelementptr inbounds [300 x i8], [300 x i8]* %1, i64 0, i64 0
  %35 = call i8* @strcpy(i8* %33, i8* %34) #6
  br label %36

36:                                               ; preds = %32, %28
  br label %37

37:                                               ; preds = %36
  %38 = call i32 @getchar()
  %39 = icmp ne i32 %38, 10
  br i1 %39, label %9, label %40

40:                                               ; preds = %37
  %41 = getelementptr inbounds [20 x i8], [20 x i8]* %2, i64 0, i64 0
  %42 = call i32 @puts(i8* %41)
  %43 = getelementptr inbounds [20 x i8], [20 x i8]* %3, i64 0, i64 0
  %44 = call i32 @puts(i8* %43)
  ret void
}

; Function Attrs: argmemonly nounwind willreturn
declare void @llvm.memset.p0i8.i64(i8* nocapture writeonly, i8, i64, i1 immarg) #1

; Function Attrs: argmemonly nounwind willreturn
declare void @llvm.memcpy.p0i8.p0i8.i64(i8* noalias nocapture writeonly, i8* noalias nocapture readonly, i64, i1 immarg) #1

declare dso_local i32 @__isoc99_scanf(i8*, ...) #2

; Function Attrs: nounwind readonly
declare dso_local i64 @strlen(i8*) #3

; Function Attrs: nounwind
declare dso_local i8* @strcpy(i8*, i8*) #4

declare dso_local i32 @getchar() #2

declare dso_local i32 @puts(i8*) #2


!llvm.module.flags = !{!0}
!llvm.ident = !{!1}

!0 = !{i32 1, !"wchar_size", i32 4}
!1 = !{!"clang version 10.0.0-4ubuntu1 "}
