; ModuleID = 'source-C-CXX/23/165.c'
source_filename = "source-C-CXX/23/165.c"
target datalayout = "e-m:e-p270:32:32-p271:32:32-p272:64:64-i64:64-f80:128-n8:16:32:64-S128"
target triple = "x86_64-pc-linux-gnu"

%struct._IO_FILE = type { i32, i8*, i8*, i8*, i8*, i8*, i8*, i8*, i8*, i8*, i8*, i8*, %struct._IO_marker*, %struct._IO_FILE*, i32, i32, i64, i16, i8, [1 x i8], i8*, i64, %struct._IO_codecvt*, %struct._IO_wide_data*, %struct._IO_FILE*, i8*, i64, i32, [20 x i8] }
%struct._IO_marker = type opaque
%struct._IO_codecvt = type opaque
%struct._IO_wide_data = type opaque

@__const.main.min = private unnamed_addr constant [20 x i8] c"aaaaaaaaaaaaaaa\00\00\00\00\00", align 16
@.str = private unnamed_addr constant [3 x i8] c"%s\00", align 1
@stdin = external local_unnamed_addr global %struct._IO_FILE*, align 8

; Function Attrs: nofree nounwind sspstrong uwtable
define dso_local void @main() local_unnamed_addr #0 {
  %1 = alloca [300 x i8], align 16
  %2 = alloca [20 x i8], align 16
  %3 = alloca [20 x i8], align 16
  %4 = getelementptr inbounds [300 x i8], [300 x i8]* %1, i64 0, i64 0
  call void @llvm.lifetime.start.p0i8(i64 300, i8* nonnull %4) #7
  %5 = getelementptr inbounds [20 x i8], [20 x i8]* %2, i64 0, i64 0
  call void @llvm.lifetime.start.p0i8(i64 20, i8* nonnull %5) #7
  call void @llvm.memset.p0i8.i64(i8* noundef nonnull align 16 dereferenceable(20) %5, i8 0, i64 20, i1 false)
  %6 = getelementptr inbounds [20 x i8], [20 x i8]* %3, i64 0, i64 0
  call void @llvm.lifetime.start.p0i8(i64 20, i8* nonnull %6) #7
  call void @llvm.memcpy.p0i8.p0i8.i64(i8* noundef nonnull align 16 dereferenceable(20) %6, i8* noundef nonnull align 16 dereferenceable(20) getelementptr inbounds ([20 x i8], [20 x i8]* @__const.main.min, i64 0, i64 0), i64 20, i1 false)
  br label %7

7:                                                ; preds = %22, %0
  %8 = call i32 (i8*, ...) @__isoc99_scanf(i8* getelementptr inbounds ([3 x i8], [3 x i8]* @.str, i64 0, i64 0), i8* nonnull %4)
  %9 = call i64 @strlen(i8* noundef nonnull %4) #8
  %10 = trunc i64 %9 to i32
  %11 = call i64 @strlen(i8* noundef nonnull %5) #8
  %12 = trunc i64 %11 to i32
  %13 = call i64 @strlen(i8* noundef nonnull %6) #8
  %14 = trunc i64 %13 to i32
  %15 = icmp sgt i32 %10, %12
  br i1 %15, label %16, label %18

16:                                               ; preds = %7
  %17 = call i8* @strcpy(i8* noundef nonnull %5, i8* noundef nonnull %4) #7
  br label %18

18:                                               ; preds = %16, %7
  %19 = icmp slt i32 %10, %14
  br i1 %19, label %20, label %22

20:                                               ; preds = %18
  %21 = call i8* @strcpy(i8* noundef nonnull %6, i8* noundef nonnull %4) #7
  br label %22

22:                                               ; preds = %18, %20
  %23 = load %struct._IO_FILE*, %struct._IO_FILE** @stdin, align 8, !tbaa !5
  %24 = call i32 @getc(%struct._IO_FILE* %23) #7
  %25 = icmp eq i32 %24, 10
  br i1 %25, label %26, label %7, !llvm.loop !9

26:                                               ; preds = %22
  %27 = call i32 @puts(i8* nonnull %5)
  %28 = call i32 @puts(i8* nonnull %6)
  call void @llvm.lifetime.end.p0i8(i64 20, i8* nonnull %6) #7
  call void @llvm.lifetime.end.p0i8(i64 20, i8* nonnull %5) #7
  call void @llvm.lifetime.end.p0i8(i64 300, i8* nonnull %4) #7
  ret void
}

; Function Attrs: argmemonly mustprogress nofree nosync nounwind willreturn
declare void @llvm.lifetime.start.p0i8(i64 immarg, i8* nocapture) #1

; Function Attrs: argmemonly mustprogress nofree nounwind willreturn writeonly
declare void @llvm.memset.p0i8.i64(i8* nocapture writeonly, i8, i64, i1 immarg) #2

; Function Attrs: argmemonly mustprogress nofree nounwind willreturn
declare void @llvm.memcpy.p0i8.p0i8.i64(i8* noalias nocapture writeonly, i8* noalias nocapture readonly, i64, i1 immarg) #3

; Function Attrs: nofree nounwind
declare noundef i32 @__isoc99_scanf(i8* nocapture noundef readonly, ...) local_unnamed_addr #4

; Function Attrs: argmemonly mustprogress nofree nounwind readonly willreturn
declare i64 @strlen(i8* nocapture) local_unnamed_addr #5

; Function Attrs: argmemonly mustprogress nofree nounwind willreturn
declare i8* @strcpy(i8* noalias returned writeonly, i8* noalias nocapture readonly) local_unnamed_addr #6

; Function Attrs: nofree nounwind
declare noundef i32 @puts(i8* nocapture noundef readonly) local_unnamed_addr #4

; Function Attrs: argmemonly mustprogress nofree nosync nounwind willreturn
declare void @llvm.lifetime.end.p0i8(i64 immarg, i8* nocapture) #1

; Function Attrs: nofree nounwind
declare noundef i32 @getc(%struct._IO_FILE* nocapture noundef) local_unnamed_addr #4


!llvm.module.flags = !{!0, !1, !2, !3}
!llvm.ident = !{!4}

!0 = !{i32 1, !"wchar_size", i32 4}
!1 = !{i32 7, !"PIC Level", i32 2}
!2 = !{i32 7, !"PIE Level", i32 2}
!3 = !{i32 7, !"uwtable", i32 1}
!4 = !{!"clang version 13.0.0"}
!5 = !{!6, !6, i64 0}
!6 = !{!"any pointer", !7, i64 0}
!7 = !{!"omnipotent char", !8, i64 0}
!8 = !{!"Simple C/C++ TBAA"}
!9 = distinct !{!9, !10}
!10 = !{!"llvm.loop.mustprogress"}
